; ModuleID = '53/1703.c'
source_filename = "53/1703.c"
target datalayout = "e-m:e-p270:32:32-p271:32:32-p272:64:64-i64:64-f80:128-n8:16:32:64-S128"
target triple = "x86_64-pc-linux-gnu"

@.str = private unnamed_addr constant [3 x i8] c"%d\00", align 1
@.str.1 = private unnamed_addr constant [4 x i8] c",%d\00", align 1

; Function Attrs: noinline nounwind uwtable
define dso_local i32 @main() #0 {
  %1 = alloca i32, align 4
  %2 = alloca i32, align 4
  %3 = alloca i32, align 4
  %4 = alloca i32, align 4
  %5 = alloca i32, align 4
  %6 = alloca [310 x i32], align 16
  %7 = alloca [310 x i32], align 16
  store i32 0, i32* %1, align 4
  store i32 0, i32* %5, align 4
  %8 = call i32 (i8*, ...) @__isoc99_scanf(i8* getelementptr inbounds ([3 x i8], [3 x i8]* @.str, i64 0, i64 0), i32* %2)
  store i32 0, i32* %3, align 4
  br label %9

9:                                                ; preds = %18, %0
  %10 = load i32, i32* %3, align 4
  %11 = load i32, i32* %2, align 4
  %12 = icmp slt i32 %10, %11
  br i1 %12, label %13, label %21

13:                                               ; preds = %9
  %14 = load i32, i32* %3, align 4
  %15 = sext i32 %14 to i64
  %16 = getelementptr inbounds [310 x i32], [310 x i32]* %6, i64 0, i64 %15
  %17 = call i32 (i8*, ...) @__isoc99_scanf(i8* getelementptr inbounds ([3 x i8], [3 x i8]* @.str, i64 0, i64 0), i32* %16)
  br label %18

18:                                               ; preds = %13
  %19 = load i32, i32* %3, align 4
  %20 = add nsw i32 %19, 1
  store i32 %20, i32* %3, align 4
  br label %9

21:                                               ; preds = %9
  %22 = getelementptr inbounds [310 x i32], [310 x i32]* %6, i64 0, i64 0
  %23 = load i32, i32* %22, align 16
  %24 = getelementptr inbounds [310 x i32], [310 x i32]* %7, i64 0, i64 0
  store i32 %23, i32* %24, align 16
  %25 = load i32, i32* %5, align 4
  %26 = add nsw i32 %25, 1
  store i32 %26, i32* %5, align 4
  store i32 1, i32* %3, align 4
  br label %27

27:                                               ; preds = %66, %21
  %28 = load i32, i32* %3, align 4
  %29 = load i32, i32* %2, align 4
  %30 = icmp slt i32 %28, %29
  br i1 %30, label %31, label %69

31:                                               ; preds = %27
  store i32 0, i32* %4, align 4
  br label %32

32:                                               ; preds = %48, %31
  %33 = load i32, i32* %4, align 4
  %34 = load i32, i32* %5, align 4
  %35 = icmp slt i32 %33, %34
  br i1 %35, label %36, label %51

36:                                               ; preds = %32
  %37 = load i32, i32* %3, align 4
  %38 = sext i32 %37 to i64
  %39 = getelementptr inbounds [310 x i32], [310 x i32]* %6, i64 0, i64 %38
  %40 = load i32, i32* %39, align 4
  %41 = load i32, i32* %4, align 4
  %42 = sext i32 %41 to i64
  %43 = getelementptr inbounds [310 x i32], [310 x i32]* %7, i64 0, i64 %42
  %44 = load i32, i32* %43, align 4
  %45 = icmp eq i32 %40, %44
  br i1 %45, label %46, label %47

46:                                               ; preds = %36
  br label %51

47:                                               ; preds = %36
  br label %48

48:                                               ; preds = %47
  %49 = load i32, i32* %4, align 4
  %50 = add nsw i32 %49, 1
  store i32 %50, i32* %4, align 4
  br label %32

51:                                               ; preds = %46, %32
  %52 = load i32, i32* %4, align 4
  %53 = load i32, i32* %5, align 4
  %54 = icmp eq i32 %52, %53
  br i1 %54, label %55, label %65

55:                                               ; preds = %51
  %56 = load i32, i32* %3, align 4
  %57 = sext i32 %56 to i64
  %58 = getelementptr inbounds [310 x i32], [310 x i32]* %6, i64 0, i64 %57
  %59 = load i32, i32* %58, align 4
  %60 = load i32, i32* %5, align 4
  %61 = sext i32 %60 to i64
  %62 = getelementptr inbounds [310 x i32], [310 x i32]* %7, i64 0, i64 %61
  store i32 %59, i32* %62, align 4
  %63 = load i32, i32* %5, align 4
  %64 = add nsw i32 %63, 1
  store i32 %64, i32* %5, align 4
  br label %65

65:                                               ; preds = %55, %51
  br label %66

66:                                               ; preds = %65
  %67 = load i32, i32* %3, align 4
  %68 = add nsw i32 %67, 1
  store i32 %68, i32* %3, align 4
  br label %27

69:                                               ; preds = %27
  %70 = getelementptr inbounds [310 x i32], [310 x i32]* %7, i64 0, i64 0
  %71 = load i32, i32* %70, align 16
  %72 = call i32 (i8*, ...) @printf(i8* getelementptr inbounds ([3 x i8], [3 x i8]* @.str, i64 0, i64 0), i32 %71)
  store i32 1, i32* %3, align 4
  br label %73

73:                                               ; preds = %83, %69
  %74 = load i32, i32* %3, align 4
  %75 = load i32, i32* %5, align 4
  %76 = icmp slt i32 %74, %75
  br i1 %76, label %77, label %86

77:                                               ; preds = %73
  %78 = load i32, i32* %3, align 4
  %79 = sext i32 %78 to i64
  %80 = getelementptr inbounds [310 x i32], [310 x i32]* %7, i64 0, i64 %79
  %81 = load i32, i32* %80, align 4
  %82 = call i32 (i8*, ...) @printf(i8* getelementptr inbounds ([4 x i8], [4 x i8]* @.str.1, i64 0, i64 0), i32 %81)
  br label %83

83:                                               ; preds = %77
  %84 = load i32, i32* %3, align 4
  %85 = add nsw i32 %84, 1
  store i32 %85, i32* %3, align 4
  br label %73

86:                                               ; preds = %73
  ret i32 0
}

declare dso_local i32 @__isoc99_scanf(i8*, ...) #1

declare dso_local i32 @printf(i8*, ...) #1


!llvm.module.flags = !{!0}
!llvm.ident = !{!1}

!0 = !{i32 1, !"wchar_size", i32 4}
!1 = !{!"clang version 10.0.0-4ubuntu1 "}
